target datalayout = "e-m:e-p270:32:32-p271:32:32-p272:64:64-i64:64-i128:128-f80:128-n8:16:32:64-S128"
target triple = "x86_64-pc-linux-gnu"

%struct.Abc_Ntk_t_ = type { i32, i32, ptr, ptr, ptr, ptr, ptr, ptr, ptr, ptr, ptr, ptr, ptr, [11 x i32], i32, i32, i32, i32, ptr, i32, ptr, ptr, i32, i32, i32, double, i32, %struct.Vec_Int_t_, ptr, ptr, ptr, ptr, ptr, float, i32, ptr, ptr, ptr, ptr, ptr, ptr, ptr, ptr, ptr, ptr, ptr, ptr, ptr, ptr, ptr, ptr, ptr, ptr, ptr, ptr, ptr, ptr }
%struct.Vec_Int_t_ = type { i32, i32, ptr }
%struct.Vec_Ptr_t_ = type { i32, i32, ptr }
%struct.Abc_Obj_t_ = type { ptr, ptr, i32, i32, %struct.Vec_Int_t_, %struct.Vec_Int_t_, %union.anon, %union.anon.0 }
%union.anon = type { ptr }
%union.anon.0 = type { ptr }

; Function Attrs: inlinehint nounwind uwtable
define internal ptr @Vec_PtrEntry(ptr noundef %0, i32 noundef %1) #4 {
  %3 = alloca ptr, align 8
  %4 = alloca i32, align 4
  store ptr %0, ptr %3, align 8, !tbaa !42
  store i32 %1, ptr %4, align 4, !tbaa !3
  %5 = load ptr, ptr %3, align 8, !tbaa !42
  %6 = getelementptr inbounds nuw %struct.Vec_Ptr_t_, ptr %5, i32 0, i32 2
  %7 = load ptr, ptr %6, align 8, !tbaa !46
  %8 = load i32, ptr %4, align 4, !tbaa !3
  %9 = sext i32 %8 to i64
  %10 = getelementptr inbounds ptr, ptr %7, i64 %9
  %11 = load ptr, ptr %10, align 8, !tbaa !47
  ret ptr %11
}

; Function Attrs: inlinehint nounwind uwtable
define internal ptr @Abc_ObjNotCond(ptr noundef %0, i32 noundef %1) #4 {
  %3 = alloca ptr, align 8
  %4 = alloca i32, align 4
  store ptr %0, ptr %3, align 8, !tbaa !53
  store i32 %1, ptr %4, align 4, !tbaa !3
  %5 = load ptr, ptr %3, align 8, !tbaa !53
  %6 = ptrtoint ptr %5 to i64
  %7 = load i32, ptr %4, align 4, !tbaa !3
  %8 = icmp ne i32 %7, 0
  %9 = zext i1 %8 to i32
  %10 = sext i32 %9 to i64
  %11 = xor i64 %6, %10
  %12 = inttoptr i64 %11 to ptr
  ret ptr %12
}

; Function Attrs: inlinehint nounwind uwtable
define internal ptr @Abc_ObjChild0(ptr noundef %0) #4 {
  %2 = alloca ptr, align 8
  store ptr %0, ptr %2, align 8, !tbaa !53
  %3 = load ptr, ptr %2, align 8, !tbaa !53
  %4 = call ptr @Abc_ObjFanin0(ptr noundef %3)
  %5 = load ptr, ptr %2, align 8, !tbaa !53
  %6 = call i32 @Abc_ObjFaninC0(ptr noundef %5)
  %7 = call ptr @Abc_ObjNotCond(ptr noundef %4, i32 noundef %6)
  ret ptr %7
}

; Function Attrs: inlinehint nounwind uwtable
define internal void @Abc_ObjXorFaninC(ptr noundef %0, i32 noundef %1) #4 {
  %3 = alloca ptr, align 8
  %4 = alloca i32, align 4
  store ptr %0, ptr %3, align 8, !tbaa !53
  store i32 %1, ptr %4, align 4, !tbaa !3
  %5 = load i32, ptr %4, align 4, !tbaa !3
  %6 = icmp ne i32 %5, 0
  br i1 %6, label %7, label %19

7:                                                ; preds = %2
  %8 = load ptr, ptr %3, align 8, !tbaa !53
  %9 = getelementptr inbounds nuw %struct.Abc_Obj_t_, ptr %8, i32 0, i32 3
  %10 = load i32, ptr %9, align 4
  %11 = lshr i32 %10, 11
  %12 = and i32 %11, 1
  %13 = xor i32 %12, 1
  %14 = load i32, ptr %9, align 4
  %15 = and i32 %13, 1
  %16 = shl i32 %15, 11
  %17 = and i32 %14, -2049
  %18 = or i32 %17, %16
  store i32 %18, ptr %9, align 4
  br label %31

19:                                               ; preds = %2
  %20 = load ptr, ptr %3, align 8, !tbaa !53
  %21 = getelementptr inbounds nuw %struct.Abc_Obj_t_, ptr %20, i32 0, i32 3
  %22 = load i32, ptr %21, align 4
  %23 = lshr i32 %22, 10
  %24 = and i32 %23, 1
  %25 = xor i32 %24, 1
  %26 = load i32, ptr %21, align 4
  %27 = and i32 %25, 1
  %28 = shl i32 %27, 10
  %29 = and i32 %26, -1025
  %30 = or i32 %29, %28
  store i32 %30, ptr %21, align 4
  br label %31

31:                                               ; preds = %19, %7
  ret void
}

; Function Attrs: inlinehint nounwind uwtable
define internal i32 @Abc_ObjFaninC0(ptr noundef %0) #4 {
  %2 = alloca ptr, align 8
  store ptr %0, ptr %2, align 8, !tbaa !53
  %3 = load ptr, ptr %2, align 8, !tbaa !53
  %4 = getelementptr inbounds nuw %struct.Abc_Obj_t_, ptr %3, i32 0, i32 3
  %5 = load i32, ptr %4, align 4
  %6 = lshr i32 %5, 10
  %7 = and i32 %6, 1
  ret i32 %7
}

; Function Attrs: inlinehint nounwind uwtable
define internal ptr @Abc_ObjFanin0(ptr noundef %0) #4 {
  %2 = alloca ptr, align 8
  store ptr %0, ptr %2, align 8, !tbaa !53
  %3 = load ptr, ptr %2, align 8, !tbaa !53
  %4 = getelementptr inbounds nuw %struct.Abc_Obj_t_, ptr %3, i32 0, i32 0
  %5 = load ptr, ptr %4, align 8, !tbaa !83
  %6 = getelementptr inbounds nuw %struct.Abc_Ntk_t_, ptr %5, i32 0, i32 5
  %7 = load ptr, ptr %6, align 8, !tbaa !27
  %8 = getelementptr inbounds nuw %struct.Vec_Ptr_t_, ptr %7, i32 0, i32 2
  %9 = load ptr, ptr %8, align 8, !tbaa !46
  %10 = load ptr, ptr %2, align 8, !tbaa !53
  %11 = getelementptr inbounds nuw %struct.Abc_Obj_t_, ptr %10, i32 0, i32 4
  %12 = getelementptr inbounds nuw %struct.Vec_Int_t_, ptr %11, i32 0, i32 2
  %13 = load ptr, ptr %12, align 8, !tbaa !85
  %14 = getelementptr inbounds i32, ptr %13, i64 0
  %15 = load i32, ptr %14, align 4, !tbaa !3
  %16 = sext i32 %15 to i64
  %17 = getelementptr inbounds ptr, ptr %9, i64 %16
  %18 = load ptr, ptr %17, align 8, !tbaa !47
  ret ptr %18
}

; Function Attrs: inlinehint nounwind uwtable
define internal ptr @Abc_NtkPo(ptr noundef %0, i32 noundef %1) #4 {
  %3 = alloca ptr, align 8
  %4 = alloca i32, align 4
  store ptr %0, ptr %3, align 8, !tbaa !7
  store i32 %1, ptr %4, align 4, !tbaa !3
  %5 = load ptr, ptr %3, align 8, !tbaa !7
  %6 = getelementptr inbounds nuw %struct.Abc_Ntk_t_, ptr %5, i32 0, i32 7
  %7 = load ptr, ptr %6, align 8, !tbaa !30
  %8 = load i32, ptr %4, align 4, !tbaa !3
  %9 = call ptr @Vec_PtrEntry(ptr noundef %7, i32 noundef %8)
  ret ptr %9
}

; Function Attrs: nounwind uwtable
define void @Abc_NtkSwapOneOutput(ptr noundef %0, i32 noundef %1) #0 {
  %3 = alloca ptr, align 8
  %4 = alloca i32, align 4
  %5 = alloca ptr, align 8
  %6 = alloca ptr, align 8
  %7 = alloca ptr, align 8
  %8 = alloca ptr, align 8
  %9 = alloca ptr, align 8
  %10 = alloca ptr, align 8
  %11 = alloca i32, align 4
  store ptr %0, ptr %3, align 8, !tbaa !7
  store i32 %1, ptr %4, align 4, !tbaa !3
  call void @llvm.lifetime.start.p0(i64 8, ptr %5) #11
  call void @llvm.lifetime.start.p0(i64 8, ptr %6) #11
  call void @llvm.lifetime.start.p0(i64 8, ptr %7) #11
  call void @llvm.lifetime.start.p0(i64 8, ptr %8) #11
  call void @llvm.lifetime.start.p0(i64 8, ptr %9) #11
  call void @llvm.lifetime.start.p0(i64 8, ptr %10) #11
  %12 = load i32, ptr %4, align 4, !tbaa !3
  %13 = icmp eq i32 %12, 0
  br i1 %13, label %14, label %15

14:                                               ; preds = %2
  store i32 1, ptr %11, align 4
  br label %58

15:                                               ; preds = %2
  %16 = load ptr, ptr %3, align 8, !tbaa !7
  %17 = call ptr @Abc_NtkPo(ptr noundef %16, i32 noundef 0)
  store ptr %17, ptr %5, align 8, !tbaa !53
  %18 = load ptr, ptr %3, align 8, !tbaa !7
  %19 = load i32, ptr %4, align 4, !tbaa !3
  %20 = call ptr @Abc_NtkPo(ptr noundef %18, i32 noundef %19)
  store ptr %20, ptr %6, align 8, !tbaa !53
  %21 = load ptr, ptr %5, align 8, !tbaa !53
  %22 = call ptr @Abc_ObjFanin0(ptr noundef %21)
  %23 = load ptr, ptr %6, align 8, !tbaa !53
  %24 = call ptr @Abc_ObjFanin0(ptr noundef %23)
  %25 = icmp eq ptr %22, %24
  br i1 %25, label %26, label %37

26:                                               ; preds = %15
  %27 = load ptr, ptr %5, align 8, !tbaa !53
  %28 = call i32 @Abc_ObjFaninC0(ptr noundef %27)
  %29 = load ptr, ptr %6, align 8, !tbaa !53
  %30 = call i32 @Abc_ObjFaninC0(ptr noundef %29)
  %31 = xor i32 %28, %30
  %32 = icmp ne i32 %31, 0
  br i1 %32, label %33, label %36

33:                                               ; preds = %26
  %34 = load ptr, ptr %5, align 8, !tbaa !53
  call void @Abc_ObjXorFaninC(ptr noundef %34, i32 noundef 0)
  %35 = load ptr, ptr %6, align 8, !tbaa !53
  call void @Abc_ObjXorFaninC(ptr noundef %35, i32 noundef 0)
  br label %36

36:                                               ; preds = %33, %26
  store i32 1, ptr %11, align 4
  br label %58

37:                                               ; preds = %15
  %38 = load ptr, ptr %5, align 8, !tbaa !53
  %39 = call ptr @Abc_ObjChild0(ptr noundef %38)
  store ptr %39, ptr %7, align 8, !tbaa !53
  %40 = load ptr, ptr %6, align 8, !tbaa !53
  %41 = call ptr @Abc_ObjChild0(ptr noundef %40)
  store ptr %41, ptr %8, align 8, !tbaa !53
  %42 = load ptr, ptr %7, align 8, !tbaa !53
  %43 = load ptr, ptr %6, align 8, !tbaa !53
  %44 = call i32 @Abc_ObjFaninC0(ptr noundef %43)
  %45 = call ptr @Abc_ObjNotCond(ptr noundef %42, i32 noundef %44)
  store ptr %45, ptr %9, align 8, !tbaa !53
  %46 = load ptr, ptr %8, align 8, !tbaa !53
  %47 = load ptr, ptr %5, align 8, !tbaa !53
  %48 = call i32 @Abc_ObjFaninC0(ptr noundef %47)
  %49 = call ptr @Abc_ObjNotCond(ptr noundef %46, i32 noundef %48)
  store ptr %49, ptr %10, align 8, !tbaa !53
  %50 = load ptr, ptr %5, align 8, !tbaa !53
  %51 = load ptr, ptr %5, align 8, !tbaa !53
  %52 = call ptr @Abc_ObjFanin0(ptr noundef %51)
  %53 = load ptr, ptr %10, align 8, !tbaa !53
  call void @Abc_ObjPatchFanin(ptr noundef %50, ptr noundef %52, ptr noundef %53)
  %54 = load ptr, ptr %6, align 8, !tbaa !53
  %55 = load ptr, ptr %6, align 8, !tbaa !53
  %56 = call ptr @Abc_ObjFanin0(ptr noundef %55)
  %57 = load ptr, ptr %9, align 8, !tbaa !53
  call void @Abc_ObjPatchFanin(ptr noundef %54, ptr noundef %56, ptr noundef %57)
  store i32 0, ptr %11, align 4
  br label %58

58:                                               ; preds = %37, %36, %14
  call void @llvm.lifetime.end.p0(i64 8, ptr %10) #11
  call void @llvm.lifetime.end.p0(i64 8, ptr %9) #11
  call void @llvm.lifetime.end.p0(i64 8, ptr %8) #11
  call void @llvm.lifetime.end.p0(i64 8, ptr %7) #11
  call void @llvm.lifetime.end.p0(i64 8, ptr %6) #11
  call void @llvm.lifetime.end.p0(i64 8, ptr %5) #11
  %59 = load i32, ptr %11, align 4
  switch i32 %59, label %61 [
    i32 0, label %60
    i32 1, label %60
  ]

60:                                               ; preds = %58, %58
  ret void

61:                                               ; preds = %58
  unreachable
}