; Function Attrs: nounwind uwtable
define void @Abc_NtkSwapOneOutput(ptr noundef readonly captures(none) %0, i32 noundef %1) local_unnamed_addr #0 {
  %3 = icmp eq i32 %1, 0
  br i1 %3, label %54, label %4

4:                                                ; preds = %2
  %5 = getelementptr i8, ptr %0, i64 48
  %.val21 = load ptr, ptr %5, align 8, !tbaa !32
  %6 = getelementptr i8, ptr %.val21, i64 8
  %.val21.val = load ptr, ptr %6, align 8, !tbaa !28
  %7 = load ptr, ptr %.val21.val, align 8, !tbaa !40
  %8 = sext i32 %1 to i64
  %9 = getelementptr inbounds ptr, ptr %.val21.val, i64 %8
  %10 = load ptr, ptr %9, align 8, !tbaa !40
  %.val28 = load ptr, ptr %7, align 8, !tbaa !75
  %11 = getelementptr i8, ptr %7, i64 32
  %.val29 = load ptr, ptr %11, align 8, !tbaa !78
  %12 = getelementptr i8, ptr %.val28, i64 32
  %.val28.val = load ptr, ptr %12, align 8, !tbaa !29
  %.val29.val = load i32, ptr %.val29, align 4, !tbaa !57
  %13 = getelementptr i8, ptr %.val28.val, i64 8
  %.val28.val.val = load ptr, ptr %13, align 8, !tbaa !28
  %14 = sext i32 %.val29.val to i64
  %15 = getelementptr inbounds ptr, ptr %.val28.val.val, i64 %14
  %16 = load ptr, ptr %15, align 8, !tbaa !40
  %.val26 = load ptr, ptr %10, align 8, !tbaa !75
  %17 = getelementptr i8, ptr %10, i64 32
  %.val27 = load ptr, ptr %17, align 8, !tbaa !78
  %18 = getelementptr i8, ptr %.val26, i64 32
  %.val26.val = load ptr, ptr %18, align 8, !tbaa !29
  %.val27.val = load i32, ptr %.val27, align 4, !tbaa !57
  %19 = getelementptr i8, ptr %.val26.val, i64 8
  %.val26.val.val = load ptr, ptr %19, align 8, !tbaa !28
  %20 = sext i32 %.val27.val to i64
  %21 = getelementptr inbounds ptr, ptr %.val26.val.val, i64 %20
  %22 = load ptr, ptr %21, align 8, !tbaa !40
  %23 = icmp eq ptr %16, %22
  %24 = getelementptr i8, ptr %7, i64 20
  %.val33 = load i32, ptr %24, align 4
  br i1 %23, label %25, label %33

25:                                               ; preds = %4
  %26 = getelementptr i8, ptr %10, i64 20
  %.val32 = load i32, ptr %26, align 4
  %27 = xor i32 %.val32, %.val33
  %28 = and i32 %27, 1024
  %.not = icmp eq i32 %28, 0
  br i1 %.not, label %54, label %29

29:                                               ; preds = %25
  %30 = xor i32 %.val33, 1024
  store i32 %30, ptr %24, align 4
  %31 = load i32, ptr %26, align 4
  %32 = xor i32 %31, 1024
  store i32 %32, ptr %26, align 4
  br label %54

33:                                               ; preds = %4
  %34 = lshr i32 %.val33, 10
  %35 = and i32 %34, 1
  %36 = ptrtoint ptr %16 to i64
  %37 = zext nneg i32 %35 to i64
  %38 = getelementptr i8, ptr %10, i64 20
  %.val3.i39 = load i32, ptr %38, align 4
  %39 = lshr i32 %.val3.i39, 10
  %40 = and i32 %39, 1
  %41 = ptrtoint ptr %22 to i64
  %42 = zext nneg i32 %40 to i64
  %43 = xor i64 %37, %36
  %44 = xor i64 %43, %42
  %45 = inttoptr i64 %44 to ptr
  %46 = xor i64 %37, %41
  %47 = xor i64 %46, %42
  %48 = inttoptr i64 %47 to ptr
  tail call void @Abc_ObjPatchFanin(ptr noundef nonnull %7, ptr noundef %16, ptr noundef %48) #20
  %.val22 = load ptr, ptr %10, align 8, !tbaa !75
  %.val23 = load ptr, ptr %17, align 8, !tbaa !78
  %49 = getelementptr i8, ptr %.val22, i64 32
  %.val22.val = load ptr, ptr %49, align 8, !tbaa !29
  %.val23.val = load i32, ptr %.val23, align 4, !tbaa !57
  %50 = getelementptr i8, ptr %.val22.val, i64 8
  %.val22.val.val = load ptr, ptr %50, align 8, !tbaa !28
  %51 = sext i32 %.val23.val to i64
  %52 = getelementptr inbounds ptr, ptr %.val22.val.val, i64 %51
  %53 = load ptr, ptr %52, align 8, !tbaa !40
  tail call void @Abc_ObjPatchFanin(ptr noundef nonnull %10, ptr noundef %53, ptr noundef %45) #20
  br label %54

54:                                               ; preds = %25, %29, %2, %33
  ret void
}